target datalayout = "e-m:e-p270:32:32-p271:32:32-p272:64:64-i64:64-i128:128-f80:128-n8:16:32:64-S128"
target triple = "x86_64-pc-linux-gnu"

%"class.std::__cxx11::basic_string" = type { %"struct.std::__cxx11::basic_string<char>::_Alloc_hider", i64, %union.anon }
%"struct.std::__cxx11::basic_string<char>::_Alloc_hider" = type { ptr }
%union.anon = type { i64, [8 x i8] }
%"struct.faiss::IOReader" = type { ptr, %"class.std::__cxx11::basic_string" }
%"struct.faiss::BufferedIOReader" = type { %"struct.faiss::IOReader", ptr, i64, i64, i64, i64, i64, %"class.std::vector.3" }
%"class.std::vector.3" = type { %"struct.std::_Vector_base.4" }
%"struct.std::_Vector_base.4" = type { %"struct.std::_Vector_base<char, std::allocator<char>>::_Vector_impl" }
%"struct.std::_Vector_base<char, std::allocator<char>>::_Vector_impl" = type { %"struct.std::_Vector_base<char, std::allocator<char>>::_Vector_impl_data" }
%"struct.std::_Vector_base<char, std::allocator<char>>::_Vector_impl_data" = type { ptr, ptr, ptr }

; Function Attrs: mustprogress nounwind uwtable
define linkonce_odr noundef ptr @_ZNKSt6vectorIcSaIcEE11_M_data_ptrIcEEPT_S4_(ptr noundef nonnull align 8 dereferenceable(24) %0, ptr noundef %1) #1 comdat align 2 {
  %3 = alloca ptr, align 8
  %4 = alloca ptr, align 8
  store ptr %0, ptr %3, align 8
  store ptr %1, ptr %4, align 8
  %5 = load ptr, ptr %4, align 8
  ret ptr %5
}

; Function Attrs: mustprogress nounwind uwtable
define linkonce_odr noundef ptr @_ZNSt6vectorIcSaIcEE4dataEv(ptr noundef nonnull align 8 dereferenceable(24) %0) #1 comdat align 2 {
  %2 = alloca ptr, align 8
  store ptr %0, ptr %2, align 8
  %3 = load ptr, ptr %2, align 8
  %4 = getelementptr inbounds %"struct.std::_Vector_base.4", ptr %3, i32 0, i32 0
  %5 = getelementptr inbounds %"struct.std::_Vector_base<char, std::allocator<char>>::_Vector_impl_data", ptr %4, i32 0, i32 0
  %6 = load ptr, ptr %5, align 8
  %7 = call noundef ptr @_ZNKSt6vectorIcSaIcEE11_M_data_ptrIcEEPT_S4_(ptr noundef nonnull align 8 dereferenceable(24) %3, ptr noundef %6) #12
  ret ptr %7
}

; Function Attrs: mustprogress nounwind uwtable
define linkonce_odr noundef nonnull align 8 dereferenceable(8) ptr @_ZSt3minImERKT_S2_S2_(ptr noundef nonnull align 8 dereferenceable(8) %0, ptr noundef nonnull align 8 dereferenceable(8) %1) #1 comdat {
  %3 = alloca ptr, align 8
  %4 = alloca ptr, align 8
  %5 = alloca ptr, align 8
  store ptr %0, ptr %4, align 8
  store ptr %1, ptr %5, align 8
  %6 = load ptr, ptr %5, align 8
  %7 = load i64, ptr %6, align 8
  %8 = load ptr, ptr %4, align 8
  %9 = load i64, ptr %8, align 8
  %10 = icmp ult i64 %7, %9
  br i1 %10, label %11, label %13

11:                                               ; preds = %2
  %12 = load ptr, ptr %5, align 8
  store ptr %12, ptr %3, align 8
  br label %15

13:                                               ; preds = %2
  %14 = load ptr, ptr %4, align 8
  store ptr %14, ptr %3, align 8
  br label %15

15:                                               ; preds = %13, %11
  %16 = load ptr, ptr %3, align 8
  ret ptr %16
}

; Function Attrs: mustprogress uwtable
define noundef i64 @_ZN5faiss16BufferedIOReaderclEPvmm(ptr noundef nonnull align 8 dereferenceable(112) %0, ptr noundef %1, i64 noundef %2, i64 noundef %3) unnamed_addr #0 align 2 {
  %5 = alloca i64, align 8
  %6 = alloca ptr, align 8
  %7 = alloca ptr, align 8
  %8 = alloca i64, align 8
  %9 = alloca i64, align 8
  %10 = alloca i64, align 8
  %11 = alloca ptr, align 8
  %12 = alloca i64, align 8
  %13 = alloca i64, align 8
  %14 = alloca i64, align 8
  store ptr %0, ptr %6, align 8
  store ptr %1, ptr %7, align 8
  store i64 %2, ptr %8, align 8
  store i64 %3, ptr %9, align 8
  %15 = load ptr, ptr %6, align 8
  %16 = load i64, ptr %8, align 8
  %17 = load i64, ptr %9, align 8
  %18 = mul i64 %16, %17
  store i64 %18, ptr %10, align 8
  %19 = load i64, ptr %10, align 8
  %20 = icmp eq i64 %19, 0
  br i1 %20, label %21, label %22

21:                                               ; preds = %4
  store i64 0, ptr %5, align 8
  br label %100

22:                                               ; preds = %4
  %23 = load ptr, ptr %7, align 8
  store ptr %23, ptr %11, align 8
  %24 = getelementptr inbounds %"struct.faiss::BufferedIOReader", ptr %15, i32 0, i32 6
  %25 = load i64, ptr %24, align 8
  %26 = getelementptr inbounds %"struct.faiss::BufferedIOReader", ptr %15, i32 0, i32 5
  %27 = load i64, ptr %26, align 8
  %28 = sub i64 %25, %27
  store i64 %28, ptr %13, align 8
  %29 = call noundef nonnull align 8 dereferenceable(8) ptr @_ZSt3minImERKT_S2_S2_(ptr noundef nonnull align 8 dereferenceable(8) %13, ptr noundef nonnull align 8 dereferenceable(8) %10)
  %30 = load i64, ptr %29, align 8
  store i64 %30, ptr %12, align 8
  %31 = load ptr, ptr %11, align 8
  %32 = getelementptr inbounds %"struct.faiss::BufferedIOReader", ptr %15, i32 0, i32 7
  %33 = call noundef ptr @_ZNSt6vectorIcSaIcEE4dataEv(ptr noundef nonnull align 8 dereferenceable(24) %32) #12
  %34 = getelementptr inbounds %"struct.faiss::BufferedIOReader", ptr %15, i32 0, i32 5
  %35 = load i64, ptr %34, align 8
  %36 = getelementptr inbounds i8, ptr %33, i64 %35
  %37 = load i64, ptr %12, align 8
  call void @llvm.memcpy.p0.p0.i64(ptr align 1 %31, ptr align 1 %36, i64 %37, i1 false)
  %38 = load i64, ptr %12, align 8
  %39 = getelementptr inbounds %"struct.faiss::BufferedIOReader", ptr %15, i32 0, i32 5
  %40 = load i64, ptr %39, align 8
  %41 = add i64 %40, %38
  store i64 %41, ptr %39, align 8
  %42 = load i64, ptr %12, align 8
  %43 = load ptr, ptr %11, align 8
  %44 = getelementptr inbounds i8, ptr %43, i64 %42
  store ptr %44, ptr %11, align 8
  %45 = load i64, ptr %12, align 8
  %46 = load i64, ptr %10, align 8
  %47 = sub i64 %46, %45
  store i64 %47, ptr %10, align 8
  br label %48

48:                                               ; preds = %68, %22
  %49 = load i64, ptr %10, align 8
  %50 = icmp ugt i64 %49, 0
  br i1 %50, label %51, label %92

51:                                               ; preds = %48
  %52 = getelementptr inbounds %"struct.faiss::BufferedIOReader", ptr %15, i32 0, i32 5
  store i64 0, ptr %52, align 8
  %53 = getelementptr inbounds %"struct.faiss::BufferedIOReader", ptr %15, i32 0, i32 1
  %54 = load ptr, ptr %53, align 8
  %55 = getelementptr inbounds %"struct.faiss::BufferedIOReader", ptr %15, i32 0, i32 7
  %56 = call noundef ptr @_ZNSt6vectorIcSaIcEE4dataEv(ptr noundef nonnull align 8 dereferenceable(24) %55) #12
  %57 = getelementptr inbounds %"struct.faiss::BufferedIOReader", ptr %15, i32 0, i32 2
  %58 = load i64, ptr %57, align 8
  %59 = load ptr, ptr %54, align 8
  %60 = getelementptr inbounds ptr, ptr %59, i64 0
  %61 = load ptr, ptr %60, align 8
  %62 = call noundef i64 %61(ptr noundef nonnull align 8 dereferenceable(40) %54, ptr noundef %56, i64 noundef 1, i64 noundef %58)
  %63 = getelementptr inbounds %"struct.faiss::BufferedIOReader", ptr %15, i32 0, i32 6
  store i64 %62, ptr %63, align 8
  %64 = getelementptr inbounds %"struct.faiss::BufferedIOReader", ptr %15, i32 0, i32 6
  %65 = load i64, ptr %64, align 8
  %66 = icmp eq i64 %65, 0
  br i1 %66, label %67, label %68

67:                                               ; preds = %51
  br label %92

68:                                               ; preds = %51
  %69 = getelementptr inbounds %"struct.faiss::BufferedIOReader", ptr %15, i32 0, i32 6
  %70 = load i64, ptr %69, align 8
  %71 = getelementptr inbounds %"struct.faiss::BufferedIOReader", ptr %15, i32 0, i32 3
  %72 = load i64, ptr %71, align 8
  %73 = add i64 %72, %70
  store i64 %73, ptr %71, align 8
  %74 = getelementptr inbounds %"struct.faiss::BufferedIOReader", ptr %15, i32 0, i32 6
  %75 = call noundef nonnull align 8 dereferenceable(8) ptr @_ZSt3minImERKT_S2_S2_(ptr noundef nonnull align 8 dereferenceable(8) %74, ptr noundef nonnull align 8 dereferenceable(8) %10)
  %76 = load i64, ptr %75, align 8
  store i64 %76, ptr %14, align 8
  %77 = load ptr, ptr %11, align 8
  %78 = getelementptr inbounds %"struct.faiss::BufferedIOReader", ptr %15, i32 0, i32 7
  %79 = call noundef ptr @_ZNSt6vectorIcSaIcEE4dataEv(ptr noundef nonnull align 8 dereferenceable(24) %78) #12
  %80 = load i64, ptr %14, align 8
  call void @llvm.memcpy.p0.p0.i64(ptr align 1 %77, ptr align 1 %79, i64 %80, i1 false)
  %81 = load i64, ptr %14, align 8
  %82 = getelementptr inbounds %"struct.faiss::BufferedIOReader", ptr %15, i32 0, i32 5
  store i64 %81, ptr %82, align 8
  %83 = load i64, ptr %14, align 8
  %84 = load i64, ptr %12, align 8
  %85 = add i64 %84, %83
  store i64 %85, ptr %12, align 8
  %86 = load i64, ptr %14, align 8
  %87 = load ptr, ptr %11, align 8
  %88 = getelementptr inbounds i8, ptr %87, i64 %86
  store ptr %88, ptr %11, align 8
  %89 = load i64, ptr %14, align 8
  %90 = load i64, ptr %10, align 8
  %91 = sub i64 %90, %89
  store i64 %91, ptr %10, align 8
  br label %48, !llvm.loop !5

92:                                               ; preds = %67, %48
  %93 = load i64, ptr %12, align 8
  %94 = getelementptr inbounds %"struct.faiss::BufferedIOReader", ptr %15, i32 0, i32 4
  %95 = load i64, ptr %94, align 8
  %96 = add i64 %95, %93
  store i64 %96, ptr %94, align 8
  %97 = load i64, ptr %12, align 8
  %98 = load i64, ptr %8, align 8
  %99 = udiv i64 %97, %98
  store i64 %99, ptr %5, align 8
  br label %100

100:                                              ; preds = %92, %21
  %101 = load i64, ptr %5, align 8
  ret i64 %101
}