; Function Attrs: mustprogress uwtable
define noundef i64 @_ZN5faiss16BufferedIOReaderclEPvmm(ptr nocapture noundef nonnull align 8 dereferenceable(112) %0, ptr nocapture noundef writeonly %1, i64 noundef %2, i64 noundef %3) unnamed_addr #2 align 2 {
  %5 = mul i64 %3, %2
  %6 = icmp eq i64 %5, 0
  br i1 %6, label %42, label %7

7:                                                ; preds = %4
  %8 = getelementptr inbounds i8, ptr %0, i64 80
  %9 = load i64, ptr %8, align 8
  %10 = getelementptr inbounds i8, ptr %0, i64 72
  %11 = load i64, ptr %10, align 8
  %12 = sub i64 %9, %11
  %.sroa.speculated = tail call i64 @llvm.umin.i64(i64 %5, i64 %12)
  %13 = getelementptr inbounds i8, ptr %0, i64 88
  %14 = load ptr, ptr %13, align 8
  %15 = getelementptr inbounds i8, ptr %14, i64 %11
  tail call void @llvm.memcpy.p0.p0.i64(ptr align 1 %1, ptr align 1 %15, i64 %.sroa.speculated, i1 false)
  %16 = load i64, ptr %10, align 8
  %17 = add i64 %16, %.sroa.speculated
  store i64 %17, ptr %10, align 8
  %18 = sub i64 %5, %.sroa.speculated
  %.not37 = icmp eq i64 %18, 0
  br i1 %.not37, label %._crit_edge, label %.lr.ph

.lr.ph:                                           ; preds = %7
  %19 = getelementptr inbounds i8, ptr %1, i64 %.sroa.speculated
  %20 = getelementptr inbounds i8, ptr %0, i64 40
  %21 = getelementptr inbounds i8, ptr %0, i64 48
  %22 = getelementptr inbounds i8, ptr %0, i64 56
  br label %23

23:                                               ; preds = %.lr.ph, %31
  %.02140 = phi i64 [ %.sroa.speculated, %.lr.ph ], [ %35, %31 ]
  %.02239 = phi ptr [ %19, %.lr.ph ], [ %36, %31 ]
  %storemerge38 = phi i64 [ %18, %.lr.ph ], [ %37, %31 ]
  store i64 0, ptr %10, align 8
  %24 = load ptr, ptr %20, align 8
  %25 = load ptr, ptr %13, align 8
  %26 = load i64, ptr %21, align 8
  %27 = load ptr, ptr %24, align 8
  %28 = load ptr, ptr %27, align 8
  %29 = tail call noundef i64 %28(ptr noundef nonnull align 8 dereferenceable(40) %24, ptr noundef %25, i64 noundef 1, i64 noundef %26)
  store i64 %29, ptr %8, align 8
  %30 = icmp eq i64 %29, 0
  br i1 %30, label %._crit_edge, label %31

31:                                               ; preds = %23
  %32 = load i64, ptr %22, align 8
  %33 = add i64 %32, %29
  store i64 %33, ptr %22, align 8
  %.sroa.speculated30 = tail call i64 @llvm.umin.i64(i64 %storemerge38, i64 %29)
  %34 = load ptr, ptr %13, align 8
  tail call void @llvm.memcpy.p0.p0.i64(ptr align 1 %.02239, ptr align 1 %34, i64 %.sroa.speculated30, i1 false)
  store i64 %.sroa.speculated30, ptr %10, align 8
  %35 = add i64 %.sroa.speculated30, %.02140
  %36 = getelementptr inbounds i8, ptr %.02239, i64 %.sroa.speculated30
  %37 = sub i64 %storemerge38, %.sroa.speculated30
  %.not = icmp eq i64 %37, 0
  br i1 %.not, label %._crit_edge, label %23, !llvm.loop !5

._crit_edge:                                      ; preds = %31, %23, %7
  %.021.lcssa = phi i64 [ %.sroa.speculated, %7 ], [ %.02140, %23 ], [ %35, %31 ]
  %38 = getelementptr inbounds i8, ptr %0, i64 64
  %39 = load i64, ptr %38, align 8
  %40 = add i64 %39, %.021.lcssa
  store i64 %40, ptr %38, align 8
  %41 = udiv i64 %.021.lcssa, %2
  br label %42

42:                                               ; preds = %4, %._crit_edge
  %.0 = phi i64 [ %41, %._crit_edge ], [ 0, %4 ]
  ret i64 %.0
}